
MASTER.elf:     file format elf32-avr

Sections:
Idx Name          Size      VMA       LMA       File off  Algn
  0 .text         000004e6  00000000  00000000  00000074  2**1
                  CONTENTS, ALLOC, LOAD, READONLY, CODE
  1 .data         00000086  00800060  000004e6  0000055a  2**0
                  CONTENTS, ALLOC, LOAD, DATA
  2 .comment      00000030  00000000  00000000  000005e0  2**0
                  CONTENTS, READONLY
  3 .note.gnu.avr.deviceinfo 0000003c  00000000  00000000  00000610  2**2
                  CONTENTS, READONLY
  4 .debug_aranges 000000d8  00000000  00000000  0000064c  2**0
                  CONTENTS, READONLY, DEBUGGING
  5 .debug_info   0000126f  00000000  00000000  00000724  2**0
                  CONTENTS, READONLY, DEBUGGING
  6 .debug_abbrev 000008de  00000000  00000000  00001993  2**0
                  CONTENTS, READONLY, DEBUGGING
  7 .debug_line   000007be  00000000  00000000  00002271  2**0
                  CONTENTS, READONLY, DEBUGGING
  8 .debug_frame  00000140  00000000  00000000  00002a30  2**2
                  CONTENTS, READONLY, DEBUGGING
  9 .debug_str    000006c4  00000000  00000000  00002b70  2**0
                  CONTENTS, READONLY, DEBUGGING
 10 .debug_loc    00000739  00000000  00000000  00003234  2**0
                  CONTENTS, READONLY, DEBUGGING
 11 .debug_ranges 00000088  00000000  00000000  0000396d  2**0
                  CONTENTS, READONLY, DEBUGGING

Disassembly of section .text:

00000000 <__vectors>:
   0:	0c 94 2a 00 	jmp	0x54	; 0x54 <__ctors_end>
   4:	0c 94 3f 00 	jmp	0x7e	; 0x7e <__bad_interrupt>
   8:	0c 94 3f 00 	jmp	0x7e	; 0x7e <__bad_interrupt>
   c:	0c 94 3f 00 	jmp	0x7e	; 0x7e <__bad_interrupt>
  10:	0c 94 3f 00 	jmp	0x7e	; 0x7e <__bad_interrupt>
  14:	0c 94 3f 00 	jmp	0x7e	; 0x7e <__bad_interrupt>
  18:	0c 94 3f 00 	jmp	0x7e	; 0x7e <__bad_interrupt>
  1c:	0c 94 3f 00 	jmp	0x7e	; 0x7e <__bad_interrupt>
  20:	0c 94 3f 00 	jmp	0x7e	; 0x7e <__bad_interrupt>
  24:	0c 94 3f 00 	jmp	0x7e	; 0x7e <__bad_interrupt>
  28:	0c 94 3f 00 	jmp	0x7e	; 0x7e <__bad_interrupt>
  2c:	0c 94 3f 00 	jmp	0x7e	; 0x7e <__bad_interrupt>
  30:	0c 94 3f 00 	jmp	0x7e	; 0x7e <__bad_interrupt>
  34:	0c 94 3f 00 	jmp	0x7e	; 0x7e <__bad_interrupt>
  38:	0c 94 3f 00 	jmp	0x7e	; 0x7e <__bad_interrupt>
  3c:	0c 94 3f 00 	jmp	0x7e	; 0x7e <__bad_interrupt>
  40:	0c 94 3f 00 	jmp	0x7e	; 0x7e <__bad_interrupt>
  44:	0c 94 3f 00 	jmp	0x7e	; 0x7e <__bad_interrupt>
  48:	0c 94 3f 00 	jmp	0x7e	; 0x7e <__bad_interrupt>
  4c:	0c 94 3f 00 	jmp	0x7e	; 0x7e <__bad_interrupt>
  50:	0c 94 3f 00 	jmp	0x7e	; 0x7e <__bad_interrupt>

00000054 <__ctors_end>:
  54:	11 24       	eor	r1, r1
  56:	1f be       	out	0x3f, r1	; 63
  58:	cf e5       	ldi	r28, 0x5F	; 95
  5a:	d8 e0       	ldi	r29, 0x08	; 8
  5c:	de bf       	out	0x3e, r29	; 62
  5e:	cd bf       	out	0x3d, r28	; 61

00000060 <__do_copy_data>:
  60:	10 e0       	ldi	r17, 0x00	; 0
  62:	a0 e6       	ldi	r26, 0x60	; 96
  64:	b0 e0       	ldi	r27, 0x00	; 0
  66:	e6 ee       	ldi	r30, 0xE6	; 230
  68:	f4 e0       	ldi	r31, 0x04	; 4
  6a:	02 c0       	rjmp	.+4      	; 0x70 <__do_copy_data+0x10>
  6c:	05 90       	lpm	r0, Z+
  6e:	0d 92       	st	X+, r0
  70:	a6 3e       	cpi	r26, 0xE6	; 230
  72:	b1 07       	cpc	r27, r17
  74:	d9 f7       	brne	.-10     	; 0x6c <__do_copy_data+0xc>
  76:	0e 94 61 01 	call	0x2c2	; 0x2c2 <main>
  7a:	0c 94 71 02 	jmp	0x4e2	; 0x4e2 <_exit>

0000007e <__bad_interrupt>:
  7e:	0c 94 00 00 	jmp	0	; 0x0 <__vectors>

00000082 <DIO_write>:
#include "DIO.h"

void DIO_write(DIO_ChannelTypes ChannelID, STD_LevelTypes level)
{
	DIO_PortTypes portX = ChannelID/8;
	DIO_ChannelTypes ChannelPos = ChannelID%8;
  82:	98 2f       	mov	r25, r24
  84:	97 70       	andi	r25, 0x07	; 7
	
	switch (portX)
  86:	86 95       	lsr	r24
  88:	86 95       	lsr	r24
  8a:	86 95       	lsr	r24
  8c:	81 30       	cpi	r24, 0x01	; 1
  8e:	21 f1       	breq	.+72     	; 0xd8 <DIO_write+0x56>
  90:	30 f0       	brcs	.+12     	; 0x9e <DIO_write+0x1c>
  92:	82 30       	cpi	r24, 0x02	; 2
  94:	f1 f1       	breq	.+124    	; 0x112 <DIO_write+0x90>
  96:	83 30       	cpi	r24, 0x03	; 3
  98:	09 f4       	brne	.+2      	; 0x9c <DIO_write+0x1a>
  9a:	58 c0       	rjmp	.+176    	; 0x14c <DIO_write+0xca>
  9c:	08 95       	ret
	{
		case DIO_portA:
		if (level == STD_high)
  9e:	61 30       	cpi	r22, 0x01	; 1
  a0:	69 f4       	brne	.+26     	; 0xbc <DIO_write+0x3a>
		{
			setB(PORTA_reg, ChannelPos);
  a2:	4b b3       	in	r20, 0x1b	; 27
  a4:	21 e0       	ldi	r18, 0x01	; 1
  a6:	30 e0       	ldi	r19, 0x00	; 0
  a8:	b9 01       	movw	r22, r18
  aa:	02 c0       	rjmp	.+4      	; 0xb0 <DIO_write+0x2e>
  ac:	66 0f       	add	r22, r22
  ae:	77 1f       	adc	r23, r23
  b0:	9a 95       	dec	r25
  b2:	e2 f7       	brpl	.-8      	; 0xac <DIO_write+0x2a>
  b4:	cb 01       	movw	r24, r22
  b6:	84 2b       	or	r24, r20
  b8:	8b bb       	out	0x1b, r24	; 27
  ba:	08 95       	ret
		}
		else
		{
			clrB(PORTA_reg, ChannelPos);
  bc:	4b b3       	in	r20, 0x1b	; 27
  be:	21 e0       	ldi	r18, 0x01	; 1
  c0:	30 e0       	ldi	r19, 0x00	; 0
  c2:	b9 01       	movw	r22, r18
  c4:	02 c0       	rjmp	.+4      	; 0xca <DIO_write+0x48>
  c6:	66 0f       	add	r22, r22
  c8:	77 1f       	adc	r23, r23
  ca:	9a 95       	dec	r25
  cc:	e2 f7       	brpl	.-8      	; 0xc6 <DIO_write+0x44>
  ce:	cb 01       	movw	r24, r22
  d0:	80 95       	com	r24
  d2:	84 23       	and	r24, r20
  d4:	8b bb       	out	0x1b, r24	; 27
  d6:	08 95       	ret
		break;
		
		
		
		case DIO_portB:
		if (level == STD_high)
  d8:	61 30       	cpi	r22, 0x01	; 1
  da:	69 f4       	brne	.+26     	; 0xf6 <DIO_write+0x74>
		{
			setB(PORTB_reg, ChannelPos);
  dc:	48 b3       	in	r20, 0x18	; 24
  de:	21 e0       	ldi	r18, 0x01	; 1
  e0:	30 e0       	ldi	r19, 0x00	; 0
  e2:	b9 01       	movw	r22, r18
  e4:	02 c0       	rjmp	.+4      	; 0xea <DIO_write+0x68>
  e6:	66 0f       	add	r22, r22
  e8:	77 1f       	adc	r23, r23
  ea:	9a 95       	dec	r25
  ec:	e2 f7       	brpl	.-8      	; 0xe6 <DIO_write+0x64>
  ee:	cb 01       	movw	r24, r22
  f0:	84 2b       	or	r24, r20
  f2:	88 bb       	out	0x18, r24	; 24
  f4:	08 95       	ret
		}
		else
		{
			clrB(PORTB_reg, ChannelPos);
  f6:	48 b3       	in	r20, 0x18	; 24
  f8:	21 e0       	ldi	r18, 0x01	; 1
  fa:	30 e0       	ldi	r19, 0x00	; 0
  fc:	b9 01       	movw	r22, r18
  fe:	02 c0       	rjmp	.+4      	; 0x104 <DIO_write+0x82>
 100:	66 0f       	add	r22, r22
 102:	77 1f       	adc	r23, r23
 104:	9a 95       	dec	r25
 106:	e2 f7       	brpl	.-8      	; 0x100 <DIO_write+0x7e>
 108:	cb 01       	movw	r24, r22
 10a:	80 95       	com	r24
 10c:	84 23       	and	r24, r20
 10e:	88 bb       	out	0x18, r24	; 24
 110:	08 95       	ret
		break;
		
		
		
		case DIO_portC:
		if (level == STD_high)
 112:	61 30       	cpi	r22, 0x01	; 1
 114:	69 f4       	brne	.+26     	; 0x130 <DIO_write+0xae>
		{
			setB(PORTC_reg, ChannelPos);
 116:	45 b3       	in	r20, 0x15	; 21
 118:	21 e0       	ldi	r18, 0x01	; 1
 11a:	30 e0       	ldi	r19, 0x00	; 0
 11c:	b9 01       	movw	r22, r18
 11e:	02 c0       	rjmp	.+4      	; 0x124 <DIO_write+0xa2>
 120:	66 0f       	add	r22, r22
 122:	77 1f       	adc	r23, r23
 124:	9a 95       	dec	r25
 126:	e2 f7       	brpl	.-8      	; 0x120 <DIO_write+0x9e>
 128:	cb 01       	movw	r24, r22
 12a:	84 2b       	or	r24, r20
 12c:	85 bb       	out	0x15, r24	; 21
 12e:	08 95       	ret
		}
		else
		{
			clrB(PORTC_reg, ChannelPos);
 130:	45 b3       	in	r20, 0x15	; 21
 132:	21 e0       	ldi	r18, 0x01	; 1
 134:	30 e0       	ldi	r19, 0x00	; 0
 136:	b9 01       	movw	r22, r18
 138:	02 c0       	rjmp	.+4      	; 0x13e <DIO_write+0xbc>
 13a:	66 0f       	add	r22, r22
 13c:	77 1f       	adc	r23, r23
 13e:	9a 95       	dec	r25
 140:	e2 f7       	brpl	.-8      	; 0x13a <DIO_write+0xb8>
 142:	cb 01       	movw	r24, r22
 144:	80 95       	com	r24
 146:	84 23       	and	r24, r20
 148:	85 bb       	out	0x15, r24	; 21
 14a:	08 95       	ret
		break;
		
		
		
		case DIO_portD:
		if (level == STD_high)
 14c:	61 30       	cpi	r22, 0x01	; 1
 14e:	69 f4       	brne	.+26     	; 0x16a <DIO_write+0xe8>
		{
			setB(PORTD_reg, ChannelPos);
 150:	42 b3       	in	r20, 0x12	; 18
 152:	21 e0       	ldi	r18, 0x01	; 1
 154:	30 e0       	ldi	r19, 0x00	; 0
 156:	b9 01       	movw	r22, r18
 158:	02 c0       	rjmp	.+4      	; 0x15e <DIO_write+0xdc>
 15a:	66 0f       	add	r22, r22
 15c:	77 1f       	adc	r23, r23
 15e:	9a 95       	dec	r25
 160:	e2 f7       	brpl	.-8      	; 0x15a <DIO_write+0xd8>
 162:	cb 01       	movw	r24, r22
 164:	84 2b       	or	r24, r20
 166:	82 bb       	out	0x12, r24	; 18
 168:	08 95       	ret
		}
		else
		{
			clrB(PORTD_reg, ChannelPos);
 16a:	42 b3       	in	r20, 0x12	; 18
 16c:	21 e0       	ldi	r18, 0x01	; 1
 16e:	30 e0       	ldi	r19, 0x00	; 0
 170:	b9 01       	movw	r22, r18
 172:	02 c0       	rjmp	.+4      	; 0x178 <DIO_write+0xf6>
 174:	66 0f       	add	r22, r22
 176:	77 1f       	adc	r23, r23
 178:	9a 95       	dec	r25
 17a:	e2 f7       	brpl	.-8      	; 0x174 <DIO_write+0xf2>
 17c:	cb 01       	movw	r24, r22
 17e:	80 95       	com	r24
 180:	84 23       	and	r24, r20
 182:	82 bb       	out	0x12, r24	; 18
 184:	08 95       	ret

00000186 <DIO_Init>:

#include "DIO_CFG.h"


void DIO_Init(void)
{
 186:	cf 93       	push	r28
 188:	df 93       	push	r29
 18a:	cd b7       	in	r28, 0x3d	; 61
 18c:	de b7       	in	r29, 0x3e	; 62
 18e:	c0 54       	subi	r28, 0x40	; 64
 190:	d1 09       	sbc	r29, r1
 192:	0f b6       	in	r0, 0x3f	; 63
 194:	f8 94       	cli
 196:	de bf       	out	0x3e, r29	; 62
 198:	0f be       	out	0x3f, r0	; 63
 19a:	cd bf       	out	0x3d, r28	; 61
	const Dio_PinCFG PinCfg[] =
 19c:	80 e4       	ldi	r24, 0x40	; 64
 19e:	e0 e6       	ldi	r30, 0x60	; 96
 1a0:	f0 e0       	ldi	r31, 0x00	; 0
 1a2:	de 01       	movw	r26, r28
 1a4:	11 96       	adiw	r26, 0x01	; 1
 1a6:	01 90       	ld	r0, Z+
 1a8:	0d 92       	st	X+, r0
 1aa:	8a 95       	dec	r24
 1ac:	e1 f7       	brne	.-8      	; 0x1a6 <DIO_Init+0x20>
 1ae:	fe 01       	movw	r30, r28
 1b0:	31 96       	adiw	r30, 0x01	; 1
	
	Uint8 count=0;
	DIO_PortTypes portX;
	DIO_ChannelTypes ChannelPos;
	
	for (count=DIO_channelA0; count<PINCOUNT ; count++)
 1b2:	80 e0       	ldi	r24, 0x00	; 0
			{
				setB (DDRB_reg,ChannelPos);
			}
			else
			{
				clrB (DDRB_reg,ChannelPos);
 1b4:	41 e0       	ldi	r20, 0x01	; 1
 1b6:	50 e0       	ldi	r21, 0x00	; 0
	DIO_ChannelTypes ChannelPos;
	
	for (count=DIO_channelA0; count<PINCOUNT ; count++)
	{
		portX = count/8;
		ChannelPos = count%8;
 1b8:	28 2f       	mov	r18, r24
 1ba:	27 70       	andi	r18, 0x07	; 7
		
		switch (portX)
 1bc:	98 2f       	mov	r25, r24
 1be:	96 95       	lsr	r25
 1c0:	96 95       	lsr	r25
 1c2:	96 95       	lsr	r25
 1c4:	91 30       	cpi	r25, 0x01	; 1
 1c6:	09 f1       	breq	.+66     	; 0x20a <DIO_Init+0x84>
 1c8:	30 f0       	brcs	.+12     	; 0x1d6 <DIO_Init+0x50>
 1ca:	92 30       	cpi	r25, 0x02	; 2
 1cc:	c1 f1       	breq	.+112    	; 0x23e <DIO_Init+0xb8>
 1ce:	93 30       	cpi	r25, 0x03	; 3
 1d0:	09 f4       	brne	.+2      	; 0x1d4 <DIO_Init+0x4e>
 1d2:	4f c0       	rjmp	.+158    	; 0x272 <DIO_Init+0xec>
 1d4:	67 c0       	rjmp	.+206    	; 0x2a4 <DIO_Init+0x11e>
		{
			case DIO_portA:
			if (PinCfg[count].PinDir == output)
 1d6:	90 81       	ld	r25, Z
 1d8:	91 30       	cpi	r25, 0x01	; 1
 1da:	59 f4       	brne	.+22     	; 0x1f2 <DIO_Init+0x6c>
			{
				setB (DDRA_reg,ChannelPos);
 1dc:	9a b3       	in	r25, 0x1a	; 26
 1de:	ba 01       	movw	r22, r20
 1e0:	02 c0       	rjmp	.+4      	; 0x1e6 <DIO_Init+0x60>
 1e2:	66 0f       	add	r22, r22
 1e4:	77 1f       	adc	r23, r23
 1e6:	2a 95       	dec	r18
 1e8:	e2 f7       	brpl	.-8      	; 0x1e2 <DIO_Init+0x5c>
 1ea:	9b 01       	movw	r18, r22
 1ec:	29 2b       	or	r18, r25
 1ee:	2a bb       	out	0x1a, r18	; 26
 1f0:	59 c0       	rjmp	.+178    	; 0x2a4 <DIO_Init+0x11e>
			}
			else
			{
				clrB (DDRA_reg,ChannelPos);
 1f2:	3a b3       	in	r19, 0x1a	; 26
 1f4:	ba 01       	movw	r22, r20
 1f6:	02 c0       	rjmp	.+4      	; 0x1fc <DIO_Init+0x76>
 1f8:	66 0f       	add	r22, r22
 1fa:	77 1f       	adc	r23, r23
 1fc:	2a 95       	dec	r18
 1fe:	e2 f7       	brpl	.-8      	; 0x1f8 <DIO_Init+0x72>
 200:	96 2f       	mov	r25, r22
 202:	90 95       	com	r25
 204:	93 23       	and	r25, r19
 206:	9a bb       	out	0x1a, r25	; 26
 208:	4d c0       	rjmp	.+154    	; 0x2a4 <DIO_Init+0x11e>
			}
			break;
			

			case DIO_portB:
			if (PinCfg[count].PinDir == output)
 20a:	90 81       	ld	r25, Z
 20c:	91 30       	cpi	r25, 0x01	; 1
 20e:	59 f4       	brne	.+22     	; 0x226 <DIO_Init+0xa0>
			{
				setB (DDRB_reg,ChannelPos);
 210:	97 b3       	in	r25, 0x17	; 23
 212:	ba 01       	movw	r22, r20
 214:	02 c0       	rjmp	.+4      	; 0x21a <DIO_Init+0x94>
 216:	66 0f       	add	r22, r22
 218:	77 1f       	adc	r23, r23
 21a:	2a 95       	dec	r18
 21c:	e2 f7       	brpl	.-8      	; 0x216 <DIO_Init+0x90>
 21e:	9b 01       	movw	r18, r22
 220:	29 2b       	or	r18, r25
 222:	27 bb       	out	0x17, r18	; 23
 224:	3f c0       	rjmp	.+126    	; 0x2a4 <DIO_Init+0x11e>
			}
			else
			{
				clrB (DDRB_reg,ChannelPos);
 226:	37 b3       	in	r19, 0x17	; 23
 228:	ba 01       	movw	r22, r20
 22a:	02 c0       	rjmp	.+4      	; 0x230 <DIO_Init+0xaa>
 22c:	66 0f       	add	r22, r22
 22e:	77 1f       	adc	r23, r23
 230:	2a 95       	dec	r18
 232:	e2 f7       	brpl	.-8      	; 0x22c <DIO_Init+0xa6>
 234:	96 2f       	mov	r25, r22
 236:	90 95       	com	r25
 238:	93 23       	and	r25, r19
 23a:	97 bb       	out	0x17, r25	; 23
 23c:	33 c0       	rjmp	.+102    	; 0x2a4 <DIO_Init+0x11e>
			}
			break;
			

			case DIO_portC:
			if (PinCfg[count].PinDir == output)
 23e:	90 81       	ld	r25, Z
 240:	91 30       	cpi	r25, 0x01	; 1
 242:	59 f4       	brne	.+22     	; 0x25a <DIO_Init+0xd4>
			{
				setB (DDRC_reg,ChannelPos);
 244:	94 b3       	in	r25, 0x14	; 20
 246:	ba 01       	movw	r22, r20
 248:	02 c0       	rjmp	.+4      	; 0x24e <DIO_Init+0xc8>
 24a:	66 0f       	add	r22, r22
 24c:	77 1f       	adc	r23, r23
 24e:	2a 95       	dec	r18
 250:	e2 f7       	brpl	.-8      	; 0x24a <DIO_Init+0xc4>
 252:	9b 01       	movw	r18, r22
 254:	29 2b       	or	r18, r25
 256:	24 bb       	out	0x14, r18	; 20
 258:	25 c0       	rjmp	.+74     	; 0x2a4 <DIO_Init+0x11e>
			}
			else
			{
				clrB (DDRC_reg,ChannelPos);
 25a:	34 b3       	in	r19, 0x14	; 20
 25c:	ba 01       	movw	r22, r20
 25e:	02 c0       	rjmp	.+4      	; 0x264 <DIO_Init+0xde>
 260:	66 0f       	add	r22, r22
 262:	77 1f       	adc	r23, r23
 264:	2a 95       	dec	r18
 266:	e2 f7       	brpl	.-8      	; 0x260 <DIO_Init+0xda>
 268:	96 2f       	mov	r25, r22
 26a:	90 95       	com	r25
 26c:	93 23       	and	r25, r19
 26e:	94 bb       	out	0x14, r25	; 20
 270:	19 c0       	rjmp	.+50     	; 0x2a4 <DIO_Init+0x11e>
			}
			break;
			

			case DIO_portD:
			if (PinCfg[count].PinDir == output)
 272:	90 81       	ld	r25, Z
 274:	91 30       	cpi	r25, 0x01	; 1
 276:	59 f4       	brne	.+22     	; 0x28e <DIO_Init+0x108>
			{
				setB (DDRD_reg,ChannelPos);
 278:	91 b3       	in	r25, 0x11	; 17
 27a:	ba 01       	movw	r22, r20
 27c:	02 c0       	rjmp	.+4      	; 0x282 <DIO_Init+0xfc>
 27e:	66 0f       	add	r22, r22
 280:	77 1f       	adc	r23, r23
 282:	2a 95       	dec	r18
 284:	e2 f7       	brpl	.-8      	; 0x27e <DIO_Init+0xf8>
 286:	9b 01       	movw	r18, r22
 288:	29 2b       	or	r18, r25
 28a:	21 bb       	out	0x11, r18	; 17
 28c:	0b c0       	rjmp	.+22     	; 0x2a4 <DIO_Init+0x11e>
			}
			else
			{
				clrB (DDRD_reg,ChannelPos);
 28e:	31 b3       	in	r19, 0x11	; 17
 290:	ba 01       	movw	r22, r20
 292:	02 c0       	rjmp	.+4      	; 0x298 <DIO_Init+0x112>
 294:	66 0f       	add	r22, r22
 296:	77 1f       	adc	r23, r23
 298:	2a 95       	dec	r18
 29a:	e2 f7       	brpl	.-8      	; 0x294 <DIO_Init+0x10e>
 29c:	96 2f       	mov	r25, r22
 29e:	90 95       	com	r25
 2a0:	93 23       	and	r25, r19
 2a2:	91 bb       	out	0x11, r25	; 17
	
	Uint8 count=0;
	DIO_PortTypes portX;
	DIO_ChannelTypes ChannelPos;
	
	for (count=DIO_channelA0; count<PINCOUNT ; count++)
 2a4:	8f 5f       	subi	r24, 0xFF	; 255
 2a6:	32 96       	adiw	r30, 0x02	; 2
 2a8:	80 32       	cpi	r24, 0x20	; 32
 2aa:	09 f0       	breq	.+2      	; 0x2ae <DIO_Init+0x128>
 2ac:	85 cf       	rjmp	.-246    	; 0x1b8 <DIO_Init+0x32>
			break;
			
			
		}
	}
 2ae:	c0 5c       	subi	r28, 0xC0	; 192
 2b0:	df 4f       	sbci	r29, 0xFF	; 255
 2b2:	0f b6       	in	r0, 0x3f	; 63
 2b4:	f8 94       	cli
 2b6:	de bf       	out	0x3e, r29	; 62
 2b8:	0f be       	out	0x3f, r0	; 63
 2ba:	cd bf       	out	0x3d, r28	; 61
 2bc:	df 91       	pop	r29
 2be:	cf 91       	pop	r28
 2c0:	08 95       	ret

000002c2 <main>:


int main(void)
{
	Uint8 Data_in ;
	DIO_Init();
 2c2:	0e 94 c3 00 	call	0x186	; 0x186 <DIO_Init>
	SPI_Init('M');
 2c6:	8d e4       	ldi	r24, 0x4D	; 77
 2c8:	0e 94 f6 01 	call	0x3ec	; 0x3ec <SPI_Init>
	SlaveEn();
 2cc:	60 e0       	ldi	r22, 0x00	; 0
 2ce:	8c e0       	ldi	r24, 0x0C	; 12
 2d0:	0e 94 41 00 	call	0x82	; 0x82 <DIO_write>
	USART_Init(9600);
 2d4:	60 e8       	ldi	r22, 0x80	; 128
 2d6:	75 e2       	ldi	r23, 0x25	; 37
 2d8:	80 e0       	ldi	r24, 0x00	; 0
 2da:	90 e0       	ldi	r25, 0x00	; 0
 2dc:	0e 94 0a 02 	call	0x414	; 0x414 <USART_Init>
	
	while (1)
	{
		SPI_Write(0x11);
 2e0:	81 e1       	ldi	r24, 0x11	; 17
 2e2:	0e 94 05 02 	call	0x40a	; 0x40a <SPI_Write>
	#else
		//round up by default
		__ticks_dc = (uint32_t)(ceil(fabs(__tmp)));
	#endif

	__builtin_avr_delay_cycles(__ticks_dc);
 2e6:	2f ef       	ldi	r18, 0xFF	; 255
 2e8:	89 e6       	ldi	r24, 0x69	; 105
 2ea:	98 e1       	ldi	r25, 0x18	; 24
 2ec:	21 50       	subi	r18, 0x01	; 1
 2ee:	80 40       	sbci	r24, 0x00	; 0
 2f0:	90 40       	sbci	r25, 0x00	; 0
 2f2:	e1 f7       	brne	.-8      	; 0x2ec <main+0x2a>
 2f4:	00 c0       	rjmp	.+0      	; 0x2f6 <main+0x34>
 2f6:	00 00       	nop
		_delay_ms(500);
		SPI_Write(0x22);
 2f8:	82 e2       	ldi	r24, 0x22	; 34
 2fa:	0e 94 05 02 	call	0x40a	; 0x40a <SPI_Write>
 2fe:	2f ef       	ldi	r18, 0xFF	; 255
 300:	89 e6       	ldi	r24, 0x69	; 105
 302:	98 e1       	ldi	r25, 0x18	; 24
 304:	21 50       	subi	r18, 0x01	; 1
 306:	80 40       	sbci	r24, 0x00	; 0
 308:	90 40       	sbci	r25, 0x00	; 0
 30a:	e1 f7       	brne	.-8      	; 0x304 <main+0x42>
 30c:	00 c0       	rjmp	.+0      	; 0x30e <main+0x4c>
 30e:	00 00       	nop
		_delay_ms(500);


		Data_in = USART_RxChar();						/* receive data from Bluetooth device*/
 310:	0e 94 38 02 	call	0x470	; 0x470 <USART_RxChar>
		if(Data_in =='1')
 314:	81 33       	cpi	r24, 0x31	; 49
 316:	49 f4       	brne	.+18     	; 0x32a <main+0x68>
		{
			DIO_write(DIO_channelC5,STD_high);							/* Turn ON LED */
 318:	61 e0       	ldi	r22, 0x01	; 1
 31a:	85 e1       	ldi	r24, 0x15	; 21
 31c:	0e 94 41 00 	call	0x82	; 0x82 <DIO_write>
			USART_SendString("LED_ON");					/* send status of LED i.e. LED ON */
 320:	80 ea       	ldi	r24, 0xA0	; 160
 322:	90 e0       	ldi	r25, 0x00	; 0
 324:	0e 94 40 02 	call	0x480	; 0x480 <USART_SendString>
 328:	db cf       	rjmp	.-74     	; 0x2e0 <main+0x1e>
		}

		else if(Data_in =='2')
 32a:	82 33       	cpi	r24, 0x32	; 50
 32c:	49 f4       	brne	.+18     	; 0x340 <main+0x7e>
		{
			DIO_write(DIO_channelC5,STD_low);							/* Turn OFF LED */
 32e:	60 e0       	ldi	r22, 0x00	; 0
 330:	85 e1       	ldi	r24, 0x15	; 21
 332:	0e 94 41 00 	call	0x82	; 0x82 <DIO_write>
			USART_SendString("LED_OFF"); 				/* send status of LED i.e. LED OFF */
 336:	87 ea       	ldi	r24, 0xA7	; 167
 338:	90 e0       	ldi	r25, 0x00	; 0
 33a:	0e 94 40 02 	call	0x480	; 0x480 <USART_SendString>
 33e:	d0 cf       	rjmp	.-96     	; 0x2e0 <main+0x1e>
			
		}


		else if(Data_in =='3')
 340:	83 33       	cpi	r24, 0x33	; 51
 342:	c9 f4       	brne	.+50     	; 0x376 <main+0xb4>
		{
			DIO_write(DIO_channelB0,STD_high);							/* Turn OFF LED */
 344:	61 e0       	ldi	r22, 0x01	; 1
 346:	88 e0       	ldi	r24, 0x08	; 8
 348:	0e 94 41 00 	call	0x82	; 0x82 <DIO_write>
			DIO_write(DIO_channelB1,STD_high);
 34c:	61 e0       	ldi	r22, 0x01	; 1
 34e:	89 e0       	ldi	r24, 0x09	; 9
 350:	0e 94 41 00 	call	0x82	; 0x82 <DIO_write>
			DIO_write(DIO_channelB2,STD_low);
 354:	60 e0       	ldi	r22, 0x00	; 0
 356:	8a e0       	ldi	r24, 0x0A	; 10
 358:	0e 94 41 00 	call	0x82	; 0x82 <DIO_write>
			DIO_write(DIO_channelC6,STD_high);
 35c:	61 e0       	ldi	r22, 0x01	; 1
 35e:	86 e1       	ldi	r24, 0x16	; 22
 360:	0e 94 41 00 	call	0x82	; 0x82 <DIO_write>
			DIO_write(DIO_channelC7,STD_low);
 364:	60 e0       	ldi	r22, 0x00	; 0
 366:	87 e1       	ldi	r24, 0x17	; 23
 368:	0e 94 41 00 	call	0x82	; 0x82 <DIO_write>
			USART_SendString("FAN_MODE"); 				/* send status of LED i.e. LED OFF */
 36c:	8f ea       	ldi	r24, 0xAF	; 175
 36e:	90 e0       	ldi	r25, 0x00	; 0
 370:	0e 94 40 02 	call	0x480	; 0x480 <USART_SendString>
 374:	b5 cf       	rjmp	.-150    	; 0x2e0 <main+0x1e>
			
		}



		else if(Data_in =='4')
 376:	84 33       	cpi	r24, 0x34	; 52
 378:	c9 f4       	brne	.+50     	; 0x3ac <main+0xea>
		{
			DIO_write(DIO_channelB0,STD_high);							/* Turn OFF LED */
 37a:	61 e0       	ldi	r22, 0x01	; 1
 37c:	88 e0       	ldi	r24, 0x08	; 8
 37e:	0e 94 41 00 	call	0x82	; 0x82 <DIO_write>
			DIO_write(DIO_channelB1,STD_low);
 382:	60 e0       	ldi	r22, 0x00	; 0
 384:	89 e0       	ldi	r24, 0x09	; 9
 386:	0e 94 41 00 	call	0x82	; 0x82 <DIO_write>
			DIO_write(DIO_channelB2,STD_high);
 38a:	61 e0       	ldi	r22, 0x01	; 1
 38c:	8a e0       	ldi	r24, 0x0A	; 10
 38e:	0e 94 41 00 	call	0x82	; 0x82 <DIO_write>
			DIO_write(DIO_channelC6,STD_low);
 392:	60 e0       	ldi	r22, 0x00	; 0
 394:	86 e1       	ldi	r24, 0x16	; 22
 396:	0e 94 41 00 	call	0x82	; 0x82 <DIO_write>
			DIO_write(DIO_channelC7,STD_high);
 39a:	61 e0       	ldi	r22, 0x01	; 1
 39c:	87 e1       	ldi	r24, 0x17	; 23
 39e:	0e 94 41 00 	call	0x82	; 0x82 <DIO_write>
			USART_SendString("REPELLENT_MODE");
 3a2:	88 eb       	ldi	r24, 0xB8	; 184
 3a4:	90 e0       	ldi	r25, 0x00	; 0
 3a6:	0e 94 40 02 	call	0x480	; 0x480 <USART_SendString>
 3aa:	9a cf       	rjmp	.-204    	; 0x2e0 <main+0x1e>
		}

		else if(Data_in =='5')
 3ac:	85 33       	cpi	r24, 0x35	; 53
 3ae:	c9 f4       	brne	.+50     	; 0x3e2 <main+0x120>
		{
			DIO_write(DIO_channelB0,STD_low);							/* Turn OFF LED */
 3b0:	60 e0       	ldi	r22, 0x00	; 0
 3b2:	88 e0       	ldi	r24, 0x08	; 8
 3b4:	0e 94 41 00 	call	0x82	; 0x82 <DIO_write>
			DIO_write(DIO_channelB1,STD_low);
 3b8:	60 e0       	ldi	r22, 0x00	; 0
 3ba:	89 e0       	ldi	r24, 0x09	; 9
 3bc:	0e 94 41 00 	call	0x82	; 0x82 <DIO_write>
			DIO_write(DIO_channelB2,STD_low);
 3c0:	60 e0       	ldi	r22, 0x00	; 0
 3c2:	8a e0       	ldi	r24, 0x0A	; 10
 3c4:	0e 94 41 00 	call	0x82	; 0x82 <DIO_write>
			DIO_write(DIO_channelC6,STD_low);
 3c8:	60 e0       	ldi	r22, 0x00	; 0
 3ca:	86 e1       	ldi	r24, 0x16	; 22
 3cc:	0e 94 41 00 	call	0x82	; 0x82 <DIO_write>
			DIO_write(DIO_channelC7,STD_low);
 3d0:	60 e0       	ldi	r22, 0x00	; 0
 3d2:	87 e1       	ldi	r24, 0x17	; 23
 3d4:	0e 94 41 00 	call	0x82	; 0x82 <DIO_write>
			USART_SendString("OFF_MODE");
 3d8:	87 ec       	ldi	r24, 0xC7	; 199
 3da:	90 e0       	ldi	r25, 0x00	; 0
 3dc:	0e 94 40 02 	call	0x480	; 0x480 <USART_SendString>
 3e0:	7f cf       	rjmp	.-258    	; 0x2e0 <main+0x1e>




		else
		USART_SendString("Select proper option");
 3e2:	80 ed       	ldi	r24, 0xD0	; 208
 3e4:	90 e0       	ldi	r25, 0x00	; 0
 3e6:	0e 94 40 02 	call	0x480	; 0x480 <USART_SendString>
 3ea:	7a cf       	rjmp	.-268    	; 0x2e0 <main+0x1e>

000003ec <SPI_Init>:
#include "SPI.h"


void SPI_Init(Uint8 state)
{
	switch (state)
 3ec:	8d 34       	cpi	r24, 0x4D	; 77
 3ee:	19 f0       	breq	.+6      	; 0x3f6 <SPI_Init+0xa>
 3f0:	83 35       	cpi	r24, 0x53	; 83
 3f2:	49 f0       	breq	.+18     	; 0x406 <__LOCK_REGION_LENGTH__+0x6>
 3f4:	08 95       	ret
	{
		
		case 'M' :
		SPCR |= (1<<SPE)|(1<<MSTR);	/* Enable SPI in master mode with Fosc/16 */
 3f6:	8d b1       	in	r24, 0x0d	; 13
 3f8:	80 65       	ori	r24, 0x50	; 80
 3fa:	8d b9       	out	0x0d, r24	; 13
		SlaveDis();
 3fc:	61 e0       	ldi	r22, 0x01	; 1
 3fe:	8c e0       	ldi	r24, 0x0C	; 12
 400:	0e 94 41 00 	call	0x82	; 0x82 <DIO_write>
		break;
 404:	08 95       	ret
		
		case 'S' :
		SPCR |= (1<<SPE);//Enable the SPI
 406:	6e 9a       	sbi	0x0d, 6	; 13
 408:	08 95       	ret

0000040a <SPI_Write>:
}

void SPI_Write(Uint8 data)		/* SPI write data function */
{
	char flush_buffer;
	SPDR = data;			/* Write data to SPI data register */
 40a:	8f b9       	out	0x0f, r24	; 15
	while(!(SPSR & (1<<SPIF)));	/* Wait till transmission complete */
 40c:	77 9b       	sbis	0x0e, 7	; 14
 40e:	fe cf       	rjmp	.-4      	; 0x40c <SPI_Write+0x2>
	flush_buffer = SPDR;		/* Flush received data */
 410:	8f b1       	in	r24, 0x0f	; 15
 412:	08 95       	ret

00000414 <USART_Init>:



void USART_Init(unsigned long BAUDRATE)				/* USART initialize function */
{
	UCSRB |= (1 << RXEN) | (1 << TXEN);				/* Enable USART transmitter and receiver */
 414:	2a b1       	in	r18, 0x0a	; 10
 416:	28 61       	ori	r18, 0x18	; 24
 418:	2a b9       	out	0x0a, r18	; 10
	UCSRC |= (1 << URSEL)| (1 << UCSZ0) | (1 << UCSZ1);	/* Write USCRC for 8 bit data and 1 stop bit */
 41a:	20 b5       	in	r18, 0x20	; 32
 41c:	26 68       	ori	r18, 0x86	; 134
 41e:	20 bd       	out	0x20, r18	; 32
	UBRRL = BAUD_PRESCALE;							/* Load UBRRL with lower 8 bit of prescale value */
 420:	dc 01       	movw	r26, r24
 422:	cb 01       	movw	r24, r22
 424:	88 0f       	add	r24, r24
 426:	99 1f       	adc	r25, r25
 428:	aa 1f       	adc	r26, r26
 42a:	bb 1f       	adc	r27, r27
 42c:	88 0f       	add	r24, r24
 42e:	99 1f       	adc	r25, r25
 430:	aa 1f       	adc	r26, r26
 432:	bb 1f       	adc	r27, r27
 434:	9c 01       	movw	r18, r24
 436:	ad 01       	movw	r20, r26
 438:	22 0f       	add	r18, r18
 43a:	33 1f       	adc	r19, r19
 43c:	44 1f       	adc	r20, r20
 43e:	55 1f       	adc	r21, r21
 440:	22 0f       	add	r18, r18
 442:	33 1f       	adc	r19, r19
 444:	44 1f       	adc	r20, r20
 446:	55 1f       	adc	r21, r21
 448:	60 e0       	ldi	r22, 0x00	; 0
 44a:	74 e2       	ldi	r23, 0x24	; 36
 44c:	84 ef       	ldi	r24, 0xF4	; 244
 44e:	90 e0       	ldi	r25, 0x00	; 0
 450:	0e 94 4f 02 	call	0x49e	; 0x49e <__udivmodsi4>
 454:	8f ef       	ldi	r24, 0xFF	; 255
 456:	82 0f       	add	r24, r18
 458:	89 b9       	out	0x09, r24	; 9
	UBRRH = (BAUD_PRESCALE >> 8);					/* Load UBRRH with upper 8 bit of prescale value */
 45a:	da 01       	movw	r26, r20
 45c:	c9 01       	movw	r24, r18
 45e:	01 97       	sbiw	r24, 0x01	; 1
 460:	a1 09       	sbc	r26, r1
 462:	b1 09       	sbc	r27, r1
 464:	89 2f       	mov	r24, r25
 466:	9a 2f       	mov	r25, r26
 468:	ab 2f       	mov	r26, r27
 46a:	bb 27       	eor	r27, r27
 46c:	80 bd       	out	0x20, r24	; 32
 46e:	08 95       	ret

00000470 <USART_RxChar>:
}

char USART_RxChar()									/* Data receiving function */
{
	while (!(UCSRA & (1 << RXC)));					/* Wait until new data receive */
 470:	5f 9b       	sbis	0x0b, 7	; 11
 472:	fe cf       	rjmp	.-4      	; 0x470 <USART_RxChar>
	return(UDR);									/* Get and return received data */
 474:	8c b1       	in	r24, 0x0c	; 12
}
 476:	08 95       	ret

00000478 <USART_TxChar>:

void USART_TxChar(char data)						/* Data transmitting function */
{
	UDR = data;										/* Write data to be transmitting in UDR */
 478:	8c b9       	out	0x0c, r24	; 12
	while (!(UCSRA & (1<<UDRE)));					/* Wait until data transmit and buffer get empty */
 47a:	5d 9b       	sbis	0x0b, 5	; 11
 47c:	fe cf       	rjmp	.-4      	; 0x47a <USART_TxChar+0x2>
}
 47e:	08 95       	ret

00000480 <USART_SendString>:

void USART_SendString(char *str)					/* Send string of USART data function */
{
 480:	cf 93       	push	r28
 482:	df 93       	push	r29
 484:	ec 01       	movw	r28, r24
	int i=0;
	while (str[i]!=0)
 486:	88 81       	ld	r24, Y
 488:	88 23       	and	r24, r24
 48a:	31 f0       	breq	.+12     	; 0x498 <USART_SendString+0x18>
 48c:	21 96       	adiw	r28, 0x01	; 1
	{
		USART_TxChar(str[i]);						/* Send each char of string till the NULL */
 48e:	0e 94 3c 02 	call	0x478	; 0x478 <USART_TxChar>
}

void USART_SendString(char *str)					/* Send string of USART data function */
{
	int i=0;
	while (str[i]!=0)
 492:	89 91       	ld	r24, Y+
 494:	81 11       	cpse	r24, r1
 496:	fb cf       	rjmp	.-10     	; 0x48e <USART_SendString+0xe>
	{
		USART_TxChar(str[i]);						/* Send each char of string till the NULL */
		i++;
	}
 498:	df 91       	pop	r29
 49a:	cf 91       	pop	r28
 49c:	08 95       	ret

0000049e <__udivmodsi4>:
 49e:	a1 e2       	ldi	r26, 0x21	; 33
 4a0:	1a 2e       	mov	r1, r26
 4a2:	aa 1b       	sub	r26, r26
 4a4:	bb 1b       	sub	r27, r27
 4a6:	fd 01       	movw	r30, r26
 4a8:	0d c0       	rjmp	.+26     	; 0x4c4 <__udivmodsi4_ep>

000004aa <__udivmodsi4_loop>:
 4aa:	aa 1f       	adc	r26, r26
 4ac:	bb 1f       	adc	r27, r27
 4ae:	ee 1f       	adc	r30, r30
 4b0:	ff 1f       	adc	r31, r31
 4b2:	a2 17       	cp	r26, r18
 4b4:	b3 07       	cpc	r27, r19
 4b6:	e4 07       	cpc	r30, r20
 4b8:	f5 07       	cpc	r31, r21
 4ba:	20 f0       	brcs	.+8      	; 0x4c4 <__udivmodsi4_ep>
 4bc:	a2 1b       	sub	r26, r18
 4be:	b3 0b       	sbc	r27, r19
 4c0:	e4 0b       	sbc	r30, r20
 4c2:	f5 0b       	sbc	r31, r21

000004c4 <__udivmodsi4_ep>:
 4c4:	66 1f       	adc	r22, r22
 4c6:	77 1f       	adc	r23, r23
 4c8:	88 1f       	adc	r24, r24
 4ca:	99 1f       	adc	r25, r25
 4cc:	1a 94       	dec	r1
 4ce:	69 f7       	brne	.-38     	; 0x4aa <__udivmodsi4_loop>
 4d0:	60 95       	com	r22
 4d2:	70 95       	com	r23
 4d4:	80 95       	com	r24
 4d6:	90 95       	com	r25
 4d8:	9b 01       	movw	r18, r22
 4da:	ac 01       	movw	r20, r24
 4dc:	bd 01       	movw	r22, r26
 4de:	cf 01       	movw	r24, r30
 4e0:	08 95       	ret

000004e2 <_exit>:
 4e2:	f8 94       	cli

000004e4 <__stop_program>:
 4e4:	ff cf       	rjmp	.-2      	; 0x4e4 <__stop_program>
